target datalayout = "e-m:e-p270:32:32-p271:32:32-p272:64:64-i64:64-i128:128-f80:128-n8:16:32:64-S128"
target triple = "x86_64-pc-linux-gnu"

%"class.gmx::HistogramSize" = type <{ i64, double, i8, [7 x i8], double, i8, [7 x i8], double, double, i8, [7 x i8] }>

; Function Attrs: mustprogress nounwind uwtable
define void @_ZN3gmx13HistogramSize16setHistogramSizeEdd(ptr noundef nonnull align 8 dereferenceable(57) %0, double noundef %1, double noundef %2) #1 align 2 {
  %4 = alloca ptr, align 8
  %5 = alloca double, align 8
  %6 = alloca double, align 8
  store ptr %0, ptr %4, align 8, !tbaa !4
  store double %1, ptr %5, align 8, !tbaa !11
  store double %2, ptr %6, align 8, !tbaa !11
  %7 = load ptr, ptr %4, align 8
  %8 = load double, ptr %5, align 8, !tbaa !11
  %9 = getelementptr inbounds nuw %"class.gmx::HistogramSize", ptr %7, i32 0, i32 1
  store double %8, ptr %9, align 8, !tbaa !17
  %10 = load double, ptr %6, align 8, !tbaa !11
  %11 = call double @log(double noundef %10) #12, !tbaa !43
  %12 = getelementptr inbounds nuw %"class.gmx::HistogramSize", ptr %7, i32 0, i32 7
  %13 = load double, ptr %12, align 8, !tbaa !21
  %14 = fsub double %13, %11
  store double %14, ptr %12, align 8, !tbaa !21
  ret void
}