; Function Attrs: mustprogress nofree nounwind willreturn memory(write, argmem: readwrite) uwtable
define void @_ZN3gmx13HistogramSize16setHistogramSizeEdd(ptr noundef nonnull align 8 captures(none) dereferenceable(57) initializes((8, 16)) %0, double noundef %1, double noundef %2) local_unnamed_addr #9 align 2 {
  %4 = getelementptr inbounds nuw i8, ptr %0, i64 8
  store double %1, ptr %4, align 8, !tbaa !11
  %5 = tail call double @log(double noundef %2) #12, !tbaa !36
  %6 = getelementptr inbounds nuw i8, ptr %0, i64 40
  %7 = load double, ptr %6, align 8, !tbaa !30
  %8 = fsub double %7, %5
  store double %8, ptr %6, align 8, !tbaa !30
  ret void
}